target datalayout = "e-m:e-p270:32:32-p271:32:32-p272:64:64-i64:64-i128:128-f80:128-n8:16:32:64-S128"
target triple = "x86_64-pc-linux-gnu"

%struct.SDL_AtomicInt = type { i32 }
%struct.SDL_MainThreadCallbackEntry = type { ptr, ptr, %struct.SDL_AtomicInt, ptr, ptr }
%struct.SDL_VideoDevice = type { ptr, ptr, ptr, ptr, ptr, ptr, ptr, ptr, ptr, ptr, ptr, ptr, ptr, ptr, ptr, ptr, ptr, ptr, ptr, ptr, ptr, ptr, ptr, ptr, ptr, ptr, ptr, ptr, ptr, ptr, ptr, ptr, ptr, ptr, ptr, ptr, ptr, ptr, ptr, ptr, ptr, ptr, ptr, ptr, ptr, ptr, ptr, ptr, ptr, ptr, ptr, ptr, ptr, ptr, ptr, ptr, ptr, ptr, ptr, ptr, ptr, ptr, ptr, ptr, ptr, ptr, ptr, ptr, ptr, ptr, ptr, ptr, ptr, ptr, ptr, ptr, ptr, ptr, ptr, ptr, ptr, ptr, ptr, ptr, ptr, ptr, ptr, ptr, ptr, ptr, ptr, ptr, ptr, ptr, ptr, ptr, ptr, i64, i8, i8, i8, ptr, i32, ptr, %struct.SDL_Rect, ptr, ptr, i32, ptr, ptr, ptr, ptr, i64, ptr, i8, i32, i32, %struct.anon.0, ptr, ptr, ptr, ptr, ptr, ptr, %struct.SDL_AtomicInt, %struct.SDL_AtomicInt, i8, %struct.anon.1, ptr, ptr, ptr, ptr, ptr }
%struct.SDL_Rect = type { i32, i32, i32, i32 }
%struct.anon.0 = type { i32, i32, i32, i32, i32, i32, i32, i32, i32, i32, i32, i32, i32, i32, i32, i32, i32, i32, i32, i32, i32, i32, i32, i32, i32, i32, i32, i32, i32, [256 x i8], ptr }
%struct.anon.1 = type { ptr, ptr, i32, [256 x i8], ptr }

@SDL_main_callbacks_lock = internal global ptr null, align 8
@SDL_main_callbacks_tail = internal global ptr null, align 8
@SDL_main_callbacks_head = internal global ptr null, align 8
@.str.164 = private unnamed_addr constant [18 x i8] c"Callback canceled\00", align 1
@.str.165 = private unnamed_addr constant [19 x i8] c"Callback timed out\00", align 1

; Function Attrs: nounwind uwtable
define internal void @SDL_DestroyMainThreadCallback(ptr noundef %0) #0 {
  %2 = alloca ptr, align 8
  store ptr %0, ptr %2, align 8
  %3 = load ptr, ptr %2, align 8
  %4 = getelementptr inbounds nuw %struct.SDL_MainThreadCallbackEntry, ptr %3, i32 0, i32 3
  %5 = load ptr, ptr %4, align 8
  %6 = icmp ne ptr %5, null
  br i1 %6, label %7, label %11

7:                                                ; preds = %1
  %8 = load ptr, ptr %2, align 8
  %9 = getelementptr inbounds nuw %struct.SDL_MainThreadCallbackEntry, ptr %8, i32 0, i32 3
  %10 = load ptr, ptr %9, align 8
  call void @SDL_DestroySemaphore_REAL(ptr noundef %10)
  br label %11

11:                                               ; preds = %7, %1
  %12 = load ptr, ptr %2, align 8
  call void @SDL_free_REAL(ptr noundef %12)
  ret void
}

; Function Attrs: nounwind uwtable
define internal void @SDL_SendWakeupEvent() #0 {
  %1 = alloca ptr, align 8
  %2 = alloca i32, align 4
  %3 = alloca ptr, align 8
  call void @llvm.lifetime.start.p0(i64 8, ptr %1) #5
  %4 = call ptr @SDL_GetVideoDevice()
  store ptr %4, ptr %1, align 8
  %5 = load ptr, ptr %1, align 8
  %6 = icmp eq ptr %5, null
  br i1 %6, label %12, label %7

7:                                                ; preds = %0
  %8 = load ptr, ptr %1, align 8
  %9 = getelementptr inbounds nuw %struct.SDL_VideoDevice, ptr %8, i32 0, i32 71
  %10 = load ptr, ptr %9, align 8
  %11 = icmp ne ptr %10, null
  br i1 %11, label %13, label %12

12:                                               ; preds = %7, %0
  store i32 1, ptr %2, align 4
  br label %26

13:                                               ; preds = %7
  call void @llvm.lifetime.start.p0(i64 8, ptr %3) #5
  %14 = load ptr, ptr %1, align 8
  %15 = getelementptr inbounds nuw %struct.SDL_VideoDevice, ptr %14, i32 0, i32 101
  %16 = call ptr @SDL_SetAtomicPointer_REAL(ptr noundef %15, ptr noundef null)
  store ptr %16, ptr %3, align 8
  %17 = load ptr, ptr %3, align 8
  %18 = icmp ne ptr %17, null
  br i1 %18, label %19, label %25

19:                                               ; preds = %13
  %20 = load ptr, ptr %1, align 8
  %21 = getelementptr inbounds nuw %struct.SDL_VideoDevice, ptr %20, i32 0, i32 71
  %22 = load ptr, ptr %21, align 8
  %23 = load ptr, ptr %1, align 8
  %24 = load ptr, ptr %3, align 8
  call void %22(ptr noundef %23, ptr noundef %24)
  br label %25

25:                                               ; preds = %19, %13
  call void @llvm.lifetime.end.p0(i64 8, ptr %3) #5
  store i32 0, ptr %2, align 4
  br label %26

26:                                               ; preds = %25, %12
  call void @llvm.lifetime.end.p0(i64 8, ptr %1) #5
  %27 = load i32, ptr %2, align 4
  switch i32 %27, label %29 [
    i32 0, label %28
    i32 1, label %28
  ]

28:                                               ; preds = %26, %26
  ret void

29:                                               ; preds = %26
  unreachable
}

; Function Attrs: nounwind uwtable
define internal ptr @SDL_CreateMainThreadCallback(ptr noundef %0, ptr noundef %1, i1 noundef zeroext %2) #0 {
  %4 = alloca ptr, align 8
  %5 = alloca ptr, align 8
  %6 = alloca ptr, align 8
  %7 = alloca i8, align 1
  %8 = alloca ptr, align 8
  %9 = alloca i32, align 4
  store ptr %0, ptr %5, align 8
  store ptr %1, ptr %6, align 8
  %10 = zext i1 %2 to i8
  store i8 %10, ptr %7, align 1
  call void @llvm.lifetime.start.p0(i64 8, ptr %8) #5
  %11 = call noalias ptr @SDL_malloc_REAL(i64 noundef 40)
  store ptr %11, ptr %8, align 8
  %12 = load ptr, ptr %8, align 8
  %13 = icmp ne ptr %12, null
  br i1 %13, label %15, label %14

14:                                               ; preds = %3
  store ptr null, ptr %4, align 8
  store i32 1, ptr %9, align 4
  br label %45

15:                                               ; preds = %3
  %16 = load ptr, ptr %5, align 8
  %17 = load ptr, ptr %8, align 8
  %18 = getelementptr inbounds nuw %struct.SDL_MainThreadCallbackEntry, ptr %17, i32 0, i32 0
  store ptr %16, ptr %18, align 8
  %19 = load ptr, ptr %6, align 8
  %20 = load ptr, ptr %8, align 8
  %21 = getelementptr inbounds nuw %struct.SDL_MainThreadCallbackEntry, ptr %20, i32 0, i32 1
  store ptr %19, ptr %21, align 8
  %22 = load ptr, ptr %8, align 8
  %23 = getelementptr inbounds nuw %struct.SDL_MainThreadCallbackEntry, ptr %22, i32 0, i32 2
  %24 = call i32 @SDL_SetAtomicInt_REAL(ptr noundef %23, i32 noundef 0)
  %25 = load i8, ptr %7, align 1, !range !3, !noundef !4
  %26 = trunc i8 %25 to i1
  br i1 %26, label %27, label %38

27:                                               ; preds = %15
  %28 = call ptr @SDL_CreateSemaphore_REAL(i32 noundef 0)
  %29 = load ptr, ptr %8, align 8
  %30 = getelementptr inbounds nuw %struct.SDL_MainThreadCallbackEntry, ptr %29, i32 0, i32 3
  store ptr %28, ptr %30, align 8
  %31 = load ptr, ptr %8, align 8
  %32 = getelementptr inbounds nuw %struct.SDL_MainThreadCallbackEntry, ptr %31, i32 0, i32 3
  %33 = load ptr, ptr %32, align 8
  %34 = icmp ne ptr %33, null
  br i1 %34, label %37, label %35

35:                                               ; preds = %27
  %36 = load ptr, ptr %8, align 8
  call void @SDL_free_REAL(ptr noundef %36)
  store ptr null, ptr %4, align 8
  store i32 1, ptr %9, align 4
  br label %45

37:                                               ; preds = %27
  br label %41

38:                                               ; preds = %15
  %39 = load ptr, ptr %8, align 8
  %40 = getelementptr inbounds nuw %struct.SDL_MainThreadCallbackEntry, ptr %39, i32 0, i32 3
  store ptr null, ptr %40, align 8
  br label %41

41:                                               ; preds = %38, %37
  %42 = load ptr, ptr %8, align 8
  %43 = getelementptr inbounds nuw %struct.SDL_MainThreadCallbackEntry, ptr %42, i32 0, i32 4
  store ptr null, ptr %43, align 8
  %44 = load ptr, ptr %8, align 8
  store ptr %44, ptr %4, align 8
  store i32 1, ptr %9, align 4
  br label %45

45:                                               ; preds = %41, %35, %14
  call void @llvm.lifetime.end.p0(i64 8, ptr %8) #5
  %46 = load ptr, ptr %4, align 8
  ret ptr %46
}

; Function Attrs: nounwind uwtable
define hidden zeroext i1 @SDL_RunOnMainThread_REAL(ptr noundef %0, ptr noundef %1, i1 noundef zeroext %2) #0 {
  %4 = alloca i1, align 1
  %5 = alloca ptr, align 8
  %6 = alloca ptr, align 8
  %7 = alloca i8, align 1
  %8 = alloca ptr, align 8
  %9 = alloca i32, align 4
  store ptr %0, ptr %5, align 8
  store ptr %1, ptr %6, align 8
  %10 = zext i1 %2 to i8
  store i8 %10, ptr %7, align 1
  %11 = call zeroext i1 @SDL_IsMainThread_REAL()
  br i1 %11, label %15, label %12

12:                                               ; preds = %3
  %13 = call i32 @SDL_WasInit_REAL(i32 noundef 16384)
  %14 = icmp ne i32 %13, 0
  br i1 %14, label %18, label %15

15:                                               ; preds = %12, %3
  %16 = load ptr, ptr %5, align 8
  %17 = load ptr, ptr %6, align 8
  call void %16(ptr noundef %17)
  store i1 true, ptr %4, align 1
  br label %59

18:                                               ; preds = %12
  call void @llvm.lifetime.start.p0(i64 8, ptr %8) #5
  %19 = load ptr, ptr %5, align 8
  %20 = load ptr, ptr %6, align 8
  %21 = load i8, ptr %7, align 1, !range !3, !noundef !4
  %22 = trunc i8 %21 to i1
  %23 = call ptr @SDL_CreateMainThreadCallback(ptr noundef %19, ptr noundef %20, i1 noundef zeroext %22)
  store ptr %23, ptr %8, align 8
  %24 = load ptr, ptr %8, align 8
  %25 = icmp ne ptr %24, null
  br i1 %25, label %27, label %26

26:                                               ; preds = %18
  store i1 false, ptr %4, align 1
  store i32 1, ptr %9, align 4
  br label %58

27:                                               ; preds = %18
  %28 = load ptr, ptr @SDL_main_callbacks_lock, align 8
  call void @SDL_LockMutex_REAL(ptr noundef %28)
  %29 = load ptr, ptr @SDL_main_callbacks_tail, align 8
  %30 = icmp ne ptr %29, null
  br i1 %30, label %31, label %36

31:                                               ; preds = %27
  %32 = load ptr, ptr %8, align 8
  %33 = load ptr, ptr @SDL_main_callbacks_tail, align 8
  %34 = getelementptr inbounds nuw %struct.SDL_MainThreadCallbackEntry, ptr %33, i32 0, i32 4
  store ptr %32, ptr %34, align 8
  %35 = load ptr, ptr %8, align 8
  store ptr %35, ptr @SDL_main_callbacks_tail, align 8
  br label %39

36:                                               ; preds = %27
  %37 = load ptr, ptr %8, align 8
  store ptr %37, ptr @SDL_main_callbacks_head, align 8
  %38 = load ptr, ptr %8, align 8
  store ptr %38, ptr @SDL_main_callbacks_tail, align 8
  br label %39

39:                                               ; preds = %36, %31
  %40 = load ptr, ptr @SDL_main_callbacks_lock, align 8
  call void @SDL_UnlockMutex_REAL(ptr noundef %40)
  call void @SDL_SendWakeupEvent()
  %41 = load i8, ptr %7, align 1, !range !3, !noundef !4
  %42 = trunc i8 %41 to i1
  br i1 %42, label %44, label %43

43:                                               ; preds = %39
  store i1 true, ptr %4, align 1
  store i32 1, ptr %9, align 4
  br label %58

44:                                               ; preds = %39
  %45 = load ptr, ptr %8, align 8
  %46 = getelementptr inbounds nuw %struct.SDL_MainThreadCallbackEntry, ptr %45, i32 0, i32 3
  %47 = load ptr, ptr %46, align 8
  call void @SDL_WaitSemaphore_REAL(ptr noundef %47)
  %48 = load ptr, ptr %8, align 8
  %49 = getelementptr inbounds nuw %struct.SDL_MainThreadCallbackEntry, ptr %48, i32 0, i32 2
  %50 = call i32 @SDL_GetAtomicInt_REAL(ptr noundef %49)
  switch i32 %50, label %56 [
    i32 1, label %51
    i32 2, label %53
  ]

51:                                               ; preds = %44
  %52 = load ptr, ptr %8, align 8
  call void @SDL_DestroyMainThreadCallback(ptr noundef %52)
  store i1 true, ptr %4, align 1
  store i32 1, ptr %9, align 4
  br label %58

53:                                               ; preds = %44
  %54 = load ptr, ptr %8, align 8
  call void @SDL_DestroyMainThreadCallback(ptr noundef %54)
  %55 = call zeroext i1 (ptr, ...) @SDL_SetError_REAL(ptr noundef @.str.164)
  store i1 %55, ptr %4, align 1
  store i32 1, ptr %9, align 4
  br label %58

56:                                               ; preds = %44
  %57 = call zeroext i1 (ptr, ...) @SDL_SetError_REAL(ptr noundef @.str.165)
  store i1 %57, ptr %4, align 1
  store i32 1, ptr %9, align 4
  br label %58

58:                                               ; preds = %56, %53, %51, %43, %26
  call void @llvm.lifetime.end.p0(i64 8, ptr %8) #5
  br label %59

59:                                               ; preds = %58, %15
  %60 = load i1, ptr %4, align 1
  ret i1 %60
}