; Function Attrs: nounwind uwtable
define hidden zeroext i1 @SDL_RunOnMainThread_REAL(ptr noundef %0, ptr noundef %1, i1 noundef zeroext %2) local_unnamed_addr #0 {
  %4 = tail call zeroext i1 @SDL_IsMainThread_REAL() #8
  br i1 %4, label %7, label %5

5:                                                ; preds = %3
  %6 = tail call i32 @SDL_WasInit_REAL(i32 noundef 16384) #8
  %.not = icmp eq i32 %6, 0
  br i1 %.not, label %7, label %8

7:                                                ; preds = %5, %3
  tail call void %0(ptr noundef %1) #8
  br label %SDL_CreateMainThreadCallback.exit.thread

8:                                                ; preds = %5
  %9 = tail call noalias ptr @SDL_malloc_REAL(i64 noundef 40) #8
  %.not.i = icmp eq ptr %9, null
  br i1 %.not.i, label %SDL_CreateMainThreadCallback.exit.thread, label %10

10:                                               ; preds = %8
  store ptr %0, ptr %9, align 8
  %11 = getelementptr inbounds nuw i8, ptr %9, i64 8
  store ptr %1, ptr %11, align 8
  %12 = getelementptr inbounds nuw i8, ptr %9, i64 16
  %13 = tail call i32 @SDL_SetAtomicInt_REAL(ptr noundef nonnull %12, i32 noundef 0) #8
  br i1 %2, label %14, label %18

14:                                               ; preds = %10
  %15 = tail call ptr @SDL_CreateSemaphore_REAL(i32 noundef 0) #8
  %16 = getelementptr inbounds nuw i8, ptr %9, i64 24
  store ptr %15, ptr %16, align 8
  %.not14.i = icmp eq ptr %15, null
  br i1 %.not14.i, label %17, label %20

17:                                               ; preds = %14
  tail call void @SDL_free_REAL(ptr noundef nonnull %9) #8
  br label %SDL_CreateMainThreadCallback.exit.thread

18:                                               ; preds = %10
  %19 = getelementptr inbounds nuw i8, ptr %9, i64 24
  store ptr null, ptr %19, align 8
  br label %20

20:                                               ; preds = %18, %14
  %21 = getelementptr inbounds nuw i8, ptr %9, i64 32
  store ptr null, ptr %21, align 8
  %22 = load ptr, ptr @SDL_main_callbacks_lock, align 8
  tail call void @SDL_LockMutex_REAL(ptr noundef %22) #8
  %23 = load ptr, ptr @SDL_main_callbacks_tail, align 8
  %.not18 = icmp eq ptr %23, null
  br i1 %.not18, label %26, label %24

24:                                               ; preds = %20
  %25 = getelementptr inbounds nuw i8, ptr %23, i64 32
  store ptr %9, ptr %25, align 8
  br label %27

26:                                               ; preds = %20
  store ptr %9, ptr @SDL_main_callbacks_head, align 8
  br label %27

27:                                               ; preds = %26, %24
  store ptr %9, ptr @SDL_main_callbacks_tail, align 8
  %28 = load ptr, ptr @SDL_main_callbacks_lock, align 8
  tail call void @SDL_UnlockMutex_REAL(ptr noundef %28) #8
  %29 = tail call ptr @SDL_GetVideoDevice() #8
  %30 = icmp eq ptr %29, null
  br i1 %30, label %SDL_SendWakeupEvent.exit, label %31

31:                                               ; preds = %27
  %32 = getelementptr inbounds nuw i8, ptr %29, i64 568
  %33 = load ptr, ptr %32, align 8
  %.not.i19 = icmp eq ptr %33, null
  br i1 %.not.i19, label %SDL_SendWakeupEvent.exit, label %34

34:                                               ; preds = %31
  %35 = getelementptr inbounds nuw i8, ptr %29, i64 792
  %36 = tail call ptr @SDL_SetAtomicPointer_REAL(ptr noundef nonnull %35, ptr noundef null) #8
  %.not8.i = icmp eq ptr %36, null
  br i1 %.not8.i, label %SDL_SendWakeupEvent.exit, label %37

37:                                               ; preds = %34
  %38 = load ptr, ptr %32, align 8
  tail call void %38(ptr noundef nonnull %29, ptr noundef nonnull %36) #8
  br label %SDL_SendWakeupEvent.exit

SDL_SendWakeupEvent.exit:                         ; preds = %27, %31, %34, %37
  br i1 %2, label %39, label %SDL_CreateMainThreadCallback.exit.thread

39:                                               ; preds = %SDL_SendWakeupEvent.exit
  %40 = getelementptr inbounds nuw i8, ptr %9, i64 24
  %41 = load ptr, ptr %40, align 8
  tail call void @SDL_WaitSemaphore_REAL(ptr noundef %41) #8
  %42 = tail call i32 @SDL_GetAtomicInt_REAL(ptr noundef nonnull %12) #8
  switch i32 %42, label %50 [
    i32 1, label %43
    i32 2, label %46
  ]

43:                                               ; preds = %39
  %44 = load ptr, ptr %40, align 8
  %.not.i20 = icmp eq ptr %44, null
  br i1 %.not.i20, label %SDL_DestroyMainThreadCallback.exit, label %45

45:                                               ; preds = %43
  tail call void @SDL_DestroySemaphore_REAL(ptr noundef nonnull %44) #8
  br label %SDL_DestroyMainThreadCallback.exit

SDL_DestroyMainThreadCallback.exit:               ; preds = %43, %45
  tail call void @SDL_free_REAL(ptr noundef nonnull %9) #8
  br label %SDL_CreateMainThreadCallback.exit.thread

46:                                               ; preds = %39
  %47 = load ptr, ptr %40, align 8
  %.not.i21 = icmp eq ptr %47, null
  br i1 %.not.i21, label %SDL_DestroyMainThreadCallback.exit22, label %48

48:                                               ; preds = %46
  tail call void @SDL_DestroySemaphore_REAL(ptr noundef nonnull %47) #8
  br label %SDL_DestroyMainThreadCallback.exit22

SDL_DestroyMainThreadCallback.exit22:             ; preds = %46, %48
  tail call void @SDL_free_REAL(ptr noundef nonnull %9) #8
  %49 = tail call zeroext i1 (ptr, ...) @SDL_SetError_REAL(ptr noundef nonnull @.str.164) #8
  br label %SDL_CreateMainThreadCallback.exit.thread

50:                                               ; preds = %39
  %51 = tail call zeroext i1 (ptr, ...) @SDL_SetError_REAL(ptr noundef nonnull @.str.165) #8
  br label %SDL_CreateMainThreadCallback.exit.thread

SDL_CreateMainThreadCallback.exit.thread:         ; preds = %8, %17, %SDL_DestroyMainThreadCallback.exit, %SDL_DestroyMainThreadCallback.exit22, %50, %SDL_SendWakeupEvent.exit, %7
  %.0 = phi i1 [ true, %7 ], [ %51, %50 ], [ %49, %SDL_DestroyMainThreadCallback.exit22 ], [ true, %SDL_DestroyMainThreadCallback.exit ], [ true, %SDL_SendWakeupEvent.exit ], [ false, %17 ], [ false, %8 ]
  ret i1 %.0
}